; ModuleID = '64/2270.c'
source_filename = "64/2270.c"
target datalayout = "e-m:e-p270:32:32-p271:32:32-p272:64:64-i64:64-f80:128-n8:16:32:64-S128"
target triple = "x86_64-pc-linux-gnu"

@.str = private unnamed_addr constant [3 x i8] c"%d\00", align 1
@.str.1 = private unnamed_addr constant [9 x i8] c"%d %d %d\00", align 1
@.str.2 = private unnamed_addr constant [29 x i8] c"(%d,%d,%d)-(%d,%d,%d)=%.2lf\0A\00", align 1

; Function Attrs: noinline nounwind uwtable
define dso_local i32 @main() #0 {
  %1 = alloca i32, align 4
  %2 = alloca i32, align 4
  %3 = alloca i32, align 4
  %4 = alloca i32, align 4
  %5 = alloca i32, align 4
  %6 = alloca i32, align 4
  %7 = alloca i32, align 4
  %8 = alloca [10 x i32], align 16
  %9 = alloca [10 x i32], align 16
  %10 = alloca [10 x i32], align 16
  %11 = alloca [10 x [10 x double]], align 16
  %12 = alloca double, align 8
  store i32 0, i32* %1, align 4
  store double 0.000000e+00, double* %12, align 8
  %13 = call i32 (i8*, ...) @__isoc99_scanf(i8* getelementptr inbounds ([3 x i8], [3 x i8]* @.str, i64 0, i64 0), i32* %2)
  store i32 0, i32* %3, align 4
  br label %14

14:                                               ; preds = %29, %0
  %15 = load i32, i32* %3, align 4
  %16 = load i32, i32* %2, align 4
  %17 = icmp slt i32 %15, %16
  br i1 %17, label %18, label %32

18:                                               ; preds = %14
  %19 = load i32, i32* %3, align 4
  %20 = sext i32 %19 to i64
  %21 = getelementptr inbounds [10 x i32], [10 x i32]* %8, i64 0, i64 %20
  %22 = load i32, i32* %3, align 4
  %23 = sext i32 %22 to i64
  %24 = getelementptr inbounds [10 x i32], [10 x i32]* %9, i64 0, i64 %23
  %25 = load i32, i32* %3, align 4
  %26 = sext i32 %25 to i64
  %27 = getelementptr inbounds [10 x i32], [10 x i32]* %10, i64 0, i64 %26
  %28 = call i32 (i8*, ...) @__isoc99_scanf(i8* getelementptr inbounds ([9 x i8], [9 x i8]* @.str.1, i64 0, i64 0), i32* %21, i32* %24, i32* %27)
  br label %29

29:                                               ; preds = %18
  %30 = load i32, i32* %3, align 4
  %31 = add nsw i32 %30, 1
  store i32 %31, i32* %3, align 4
  br label %14

32:                                               ; preds = %14
  store i32 0, i32* %3, align 4
  br label %33

33:                                               ; preds = %115, %32
  %34 = load i32, i32* %3, align 4
  %35 = load i32, i32* %2, align 4
  %36 = sub nsw i32 %35, 1
  %37 = icmp slt i32 %34, %36
  br i1 %37, label %38, label %118

38:                                               ; preds = %33
  store i32 0, i32* %4, align 4
  br label %39

39:                                               ; preds = %111, %38
  %40 = load i32, i32* %4, align 4
  %41 = load i32, i32* %2, align 4
  %42 = icmp slt i32 %40, %41
  br i1 %42, label %43, label %114

43:                                               ; preds = %39
  %44 = load i32, i32* %3, align 4
  %45 = sext i32 %44 to i64
  %46 = getelementptr inbounds [10 x i32], [10 x i32]* %8, i64 0, i64 %45
  %47 = load i32, i32* %46, align 4
  %48 = load i32, i32* %4, align 4
  %49 = sext i32 %48 to i64
  %50 = getelementptr inbounds [10 x i32], [10 x i32]* %8, i64 0, i64 %49
  %51 = load i32, i32* %50, align 4
  %52 = sub nsw i32 %47, %51
  %53 = load i32, i32* %3, align 4
  %54 = sext i32 %53 to i64
  %55 = getelementptr inbounds [10 x i32], [10 x i32]* %8, i64 0, i64 %54
  %56 = load i32, i32* %55, align 4
  %57 = load i32, i32* %4, align 4
  %58 = sext i32 %57 to i64
  %59 = getelementptr inbounds [10 x i32], [10 x i32]* %8, i64 0, i64 %58
  %60 = load i32, i32* %59, align 4
  %61 = sub nsw i32 %56, %60
  %62 = mul nsw i32 %52, %61
  %63 = load i32, i32* %3, align 4
  %64 = sext i32 %63 to i64
  %65 = getelementptr inbounds [10 x i32], [10 x i32]* %9, i64 0, i64 %64
  %66 = load i32, i32* %65, align 4
  %67 = load i32, i32* %4, align 4
  %68 = sext i32 %67 to i64
  %69 = getelementptr inbounds [10 x i32], [10 x i32]* %9, i64 0, i64 %68
  %70 = load i32, i32* %69, align 4
  %71 = sub nsw i32 %66, %70
  %72 = load i32, i32* %3, align 4
  %73 = sext i32 %72 to i64
  %74 = getelementptr inbounds [10 x i32], [10 x i32]* %9, i64 0, i64 %73
  %75 = load i32, i32* %74, align 4
  %76 = load i32, i32* %4, align 4
  %77 = sext i32 %76 to i64
  %78 = getelementptr inbounds [10 x i32], [10 x i32]* %9, i64 0, i64 %77
  %79 = load i32, i32* %78, align 4
  %80 = sub nsw i32 %75, %79
  %81 = mul nsw i32 %71, %80
  %82 = add nsw i32 %62, %81
  %83 = load i32, i32* %3, align 4
  %84 = sext i32 %83 to i64
  %85 = getelementptr inbounds [10 x i32], [10 x i32]* %10, i64 0, i64 %84
  %86 = load i32, i32* %85, align 4
  %87 = load i32, i32* %4, align 4
  %88 = sext i32 %87 to i64
  %89 = getelementptr inbounds [10 x i32], [10 x i32]* %10, i64 0, i64 %88
  %90 = load i32, i32* %89, align 4
  %91 = sub nsw i32 %86, %90
  %92 = load i32, i32* %3, align 4
  %93 = sext i32 %92 to i64
  %94 = getelementptr inbounds [10 x i32], [10 x i32]* %10, i64 0, i64 %93
  %95 = load i32, i32* %94, align 4
  %96 = load i32, i32* %4, align 4
  %97 = sext i32 %96 to i64
  %98 = getelementptr inbounds [10 x i32], [10 x i32]* %10, i64 0, i64 %97
  %99 = load i32, i32* %98, align 4
  %100 = sub nsw i32 %95, %99
  %101 = mul nsw i32 %91, %100
  %102 = add nsw i32 %82, %101
  %103 = sitofp i32 %102 to double
  %104 = call double @sqrt(double %103) #3
  %105 = load i32, i32* %3, align 4
  %106 = sext i32 %105 to i64
  %107 = getelementptr inbounds [10 x [10 x double]], [10 x [10 x double]]* %11, i64 0, i64 %106
  %108 = load i32, i32* %4, align 4
  %109 = sext i32 %108 to i64
  %110 = getelementptr inbounds [10 x double], [10 x double]* %107, i64 0, i64 %109
  store double %104, double* %110, align 8
  br label %111

111:                                              ; preds = %43
  %112 = load i32, i32* %4, align 4
  %113 = add nsw i32 %112, 1
  store i32 %113, i32* %4, align 4
  br label %39

114:                                              ; preds = %39
  br label %115

115:                                              ; preds = %114
  %116 = load i32, i32* %3, align 4
  %117 = add nsw i32 %116, 1
  store i32 %117, i32* %3, align 4
  br label %33

118:                                              ; preds = %33
  store i32 0, i32* %5, align 4
  br label %119

119:                                              ; preds = %206, %118
  %120 = load i32, i32* %5, align 4
  %121 = load i32, i32* %2, align 4
  %122 = load i32, i32* %2, align 4
  %123 = sub nsw i32 %122, 1
  %124 = mul nsw i32 %121, %123
  %125 = sdiv i32 %124, 2
  %126 = icmp slt i32 %120, %125
  br i1 %126, label %127, label %209

127:                                              ; preds = %119
  store i32 0, i32* %3, align 4
  br label %128

128:                                              ; preds = %165, %127
  %129 = load i32, i32* %3, align 4
  %130 = load i32, i32* %2, align 4
  %131 = sub nsw i32 %130, 1
  %132 = icmp slt i32 %129, %131
  br i1 %132, label %133, label %168

133:                                              ; preds = %128
  %134 = load i32, i32* %3, align 4
  %135 = add nsw i32 %134, 1
  store i32 %135, i32* %4, align 4
  br label %136

136:                                              ; preds = %161, %133
  %137 = load i32, i32* %4, align 4
  %138 = load i32, i32* %2, align 4
  %139 = icmp slt i32 %137, %138
  br i1 %139, label %140, label %164

140:                                              ; preds = %136
  %141 = load double, double* %12, align 8
  %142 = load i32, i32* %3, align 4
  %143 = sext i32 %142 to i64
  %144 = getelementptr inbounds [10 x [10 x double]], [10 x [10 x double]]* %11, i64 0, i64 %143
  %145 = load i32, i32* %4, align 4
  %146 = sext i32 %145 to i64
  %147 = getelementptr inbounds [10 x double], [10 x double]* %144, i64 0, i64 %146
  %148 = load double, double* %147, align 8
  %149 = fcmp olt double %141, %148
  br i1 %149, label %150, label %160

150:                                              ; preds = %140
  %151 = load i32, i32* %3, align 4
  %152 = sext i32 %151 to i64
  %153 = getelementptr inbounds [10 x [10 x double]], [10 x [10 x double]]* %11, i64 0, i64 %152
  %154 = load i32, i32* %4, align 4
  %155 = sext i32 %154 to i64
  %156 = getelementptr inbounds [10 x double], [10 x double]* %153, i64 0, i64 %155
  %157 = load double, double* %156, align 8
  store double %157, double* %12, align 8
  %158 = load i32, i32* %3, align 4
  store i32 %158, i32* %6, align 4
  %159 = load i32, i32* %4, align 4
  store i32 %159, i32* %7, align 4
  br label %160

160:                                              ; preds = %150, %140
  br label %161

161:                                              ; preds = %160
  %162 = load i32, i32* %4, align 4
  %163 = add nsw i32 %162, 1
  store i32 %163, i32* %4, align 4
  br label %136

164:                                              ; preds = %136
  br label %165

165:                                              ; preds = %164
  %166 = load i32, i32* %3, align 4
  %167 = add nsw i32 %166, 1
  store i32 %167, i32* %3, align 4
  br label %128

168:                                              ; preds = %128
  %169 = load double, double* %12, align 8
  %170 = fcmp oeq double %169, 0.000000e+00
  br i1 %170, label %171, label %172

171:                                              ; preds = %168
  br label %209

172:                                              ; preds = %168
  %173 = load i32, i32* %6, align 4
  %174 = sext i32 %173 to i64
  %175 = getelementptr inbounds [10 x i32], [10 x i32]* %8, i64 0, i64 %174
  %176 = load i32, i32* %175, align 4
  %177 = load i32, i32* %6, align 4
  %178 = sext i32 %177 to i64
  %179 = getelementptr inbounds [10 x i32], [10 x i32]* %9, i64 0, i64 %178
  %180 = load i32, i32* %179, align 4
  %181 = load i32, i32* %6, align 4
  %182 = sext i32 %181 to i64
  %183 = getelementptr inbounds [10 x i32], [10 x i32]* %10, i64 0, i64 %182
  %184 = load i32, i32* %183, align 4
  %185 = load i32, i32* %7, align 4
  %186 = sext i32 %185 to i64
  %187 = getelementptr inbounds [10 x i32], [10 x i32]* %8, i64 0, i64 %186
  %188 = load i32, i32* %187, align 4
  %189 = load i32, i32* %7, align 4
  %190 = sext i32 %189 to i64
  %191 = getelementptr inbounds [10 x i32], [10 x i32]* %9, i64 0, i64 %190
  %192 = load i32, i32* %191, align 4
  %193 = load i32, i32* %7, align 4
  %194 = sext i32 %193 to i64
  %195 = getelementptr inbounds [10 x i32], [10 x i32]* %10, i64 0, i64 %194
  %196 = load i32, i32* %195, align 4
  %197 = load double, double* %12, align 8
  %198 = call i32 (i8*, ...) @printf(i8* getelementptr inbounds ([29 x i8], [29 x i8]* @.str.2, i64 0, i64 0), i32 %176, i32 %180, i32 %184, i32 %188, i32 %192, i32 %196, double %197)
  %199 = load i32, i32* %6, align 4
  %200 = sext i32 %199 to i64
  %201 = getelementptr inbounds [10 x [10 x double]], [10 x [10 x double]]* %11, i64 0, i64 %200
  %202 = load i32, i32* %7, align 4
  %203 = sext i32 %202 to i64
  %204 = getelementptr inbounds [10 x double], [10 x double]* %201, i64 0, i64 %203
  store double 0.000000e+00, double* %204, align 8
  store double 0.000000e+00, double* %12, align 8
  br label %205

205:                                              ; preds = %172
  br label %206

206:                                              ; preds = %205
  %207 = load i32, i32* %5, align 4
  %208 = add nsw i32 %207, 1
  store i32 %208, i32* %5, align 4
  br label %119

209:                                              ; preds = %171, %119
  ret i32 0
}

declare dso_local i32 @__isoc99_scanf(i8*, ...) #1

; Function Attrs: nounwind
declare dso_local double @sqrt(double) #2

declare dso_local i32 @printf(i8*, ...) #1


!llvm.module.flags = !{!0}
!llvm.ident = !{!1}

!0 = !{i32 1, !"wchar_size", i32 4}
!1 = !{!"clang version 10.0.0-4ubuntu1 "}
